target datalayout = "e-m:e-p270:32:32-p271:32:32-p272:64:64-i64:64-i128:128-f80:128-n8:16:32:64-S128"
target triple = "x86_64-pc-linux-gnu"

%struct.strbuf = type { i64, i64, ptr }
%struct.apply_state = type { ptr, %struct.lock_file, i32, i32, i32, i32, i32, i32, i32, i32, i32, i32, i32, i32, i32, i32, i32, i32, i32, ptr, ptr, i32, i32, ptr, ptr, i32, %struct.strbuf, i32, i32, i32, %struct.string_list, i32, i32, %struct.strset, %struct.strset, i32, i32, %struct.string_list, ptr, ptr, i32, i32, ptr, i32, i32, i32 }
%struct.lock_file = type { ptr }
%struct.strset = type { %struct.strmap }
%struct.strmap = type { %struct.hashmap, ptr, i8 }
%struct.hashmap = type { ptr, ptr, ptr, i32, i32, i32, i32, i8 }
%struct.string_list = type { ptr, i64, i64, i8, ptr }
%struct.repository = type { ptr, ptr, ptr, ptr, ptr, %struct.strmap, %struct.strmap, %struct.repo_path_cache, ptr, ptr, ptr, ptr, %struct.repo_settings, ptr, ptr, ptr, ptr, ptr, ptr, i32, i32, i32, ptr, ptr, i32, i32, i8 }
%struct.repo_path_cache = type { ptr, ptr, ptr, ptr, ptr, ptr, ptr }
%struct.repo_settings = type { i32, i32, i32, i32, i32, i32, i32, i32, i32, i32, i32, i32, ptr, i32, i32, i32, i32, i32, i32, i32, i64, i64, i64 }
%struct.stat = type { i64, i64, i64, i32, i32, i32, i32, i64, i64, i64, i64, %struct.timespec, %struct.timespec, %struct.timespec, [3 x i64] }
%struct.timespec = type { i64, i64 }
%struct.conv_attrs = type { ptr, i32, i32, i32, ptr }

@.str.23 = private unnamed_addr constant [1 x i8] zeroinitializer, align 1
@git_gettext_enabled = external global i32, align 4
@has_symlinks = external global i32, align 4
@__const.try_create_file.nbuf = private unnamed_addr constant %struct.strbuf { i64 0, i64 0, ptr @strbuf_slopbuf }, align 8
@.str.228 = private unnamed_addr constant [24 x i8] c"failed to write to '%s'\00", align 1
@.str.229 = private unnamed_addr constant [18 x i8] c"closing file '%s'\00", align 1

; Function Attrs: inlinehint nounwind uwtable
define internal i32 @const_error() #3 {
  ret i32 -1
}

; Function Attrs: inlinehint nounwind uwtable
define internal ptr @_(ptr noundef %0) #3 {
  %2 = alloca ptr, align 8
  %3 = alloca ptr, align 8
  store ptr %0, ptr %3, align 8, !tbaa !11
  %4 = load ptr, ptr %3, align 8, !tbaa !11
  %5 = load i8, ptr %4, align 1, !tbaa !57
  %6 = icmp ne i8 %5, 0
  br i1 %6, label %8, label %7

7:                                                ; preds = %1
  store ptr @.str.23, ptr %2, align 8
  br label %16

8:                                                ; preds = %1
  %9 = load i32, ptr @git_gettext_enabled, align 4, !tbaa !39
  %10 = icmp ne i32 %9, 0
  br i1 %10, label %13, label %11

11:                                               ; preds = %8
  %12 = load ptr, ptr %3, align 8, !tbaa !11
  store ptr %12, ptr %2, align 8
  br label %16

13:                                               ; preds = %8
  %14 = load ptr, ptr %3, align 8, !tbaa !11
  %15 = call ptr @dcgettext(ptr noundef null, ptr noundef %14, i32 noundef 5) #12
  store ptr %15, ptr %2, align 8
  br label %16

16:                                               ; preds = %13, %11, %7
  %17 = load ptr, ptr %2, align 8
  ret ptr %17
}

; Function Attrs: inlinehint nounwind uwtable
define internal i32 @convert_to_working_tree(ptr noundef %0, ptr noundef %1, ptr noundef %2, i64 noundef %3, ptr noundef %4, ptr noundef %5) #3 {
  %7 = alloca ptr, align 8
  %8 = alloca ptr, align 8
  %9 = alloca ptr, align 8
  %10 = alloca i64, align 8
  %11 = alloca ptr, align 8
  %12 = alloca ptr, align 8
  %13 = alloca %struct.conv_attrs, align 8
  store ptr %0, ptr %7, align 8, !tbaa !251
  store ptr %1, ptr %8, align 8, !tbaa !11
  store ptr %2, ptr %9, align 8, !tbaa !11
  store i64 %3, ptr %10, align 8, !tbaa !87
  store ptr %4, ptr %11, align 8, !tbaa !75
  store ptr %5, ptr %12, align 8, !tbaa !315
  call void @llvm.lifetime.start.p0(i64 32, ptr %13) #12
  %14 = load ptr, ptr %7, align 8, !tbaa !251
  %15 = load ptr, ptr %8, align 8, !tbaa !11
  call void @convert_attrs(ptr noundef %14, ptr noundef %13, ptr noundef %15)
  %16 = load ptr, ptr %8, align 8, !tbaa !11
  %17 = load ptr, ptr %9, align 8, !tbaa !11
  %18 = load i64, ptr %10, align 8, !tbaa !87
  %19 = load ptr, ptr %11, align 8, !tbaa !75
  %20 = load ptr, ptr %12, align 8, !tbaa !315
  %21 = call i32 @convert_to_working_tree_ca(ptr noundef %13, ptr noundef %16, ptr noundef %17, i64 noundef %18, ptr noundef %19, ptr noundef %20)
  call void @llvm.lifetime.end.p0(i64 32, ptr %13) #12
  ret i32 %21
}

; Function Attrs: nounwind uwtable
define internal i32 @try_create_file(ptr noundef %0, ptr noundef %1, i32 noundef %2, ptr noundef %3, i64 noundef %4) #0 {
  %6 = alloca i32, align 4
  %7 = alloca ptr, align 8
  %8 = alloca ptr, align 8
  %9 = alloca i32, align 4
  %10 = alloca ptr, align 8
  %11 = alloca i64, align 8
  %12 = alloca i32, align 4
  %13 = alloca i32, align 4
  %14 = alloca %struct.strbuf, align 8
  %15 = alloca %struct.stat, align 8
  %16 = alloca i32, align 4
  store ptr %0, ptr %7, align 8, !tbaa !4
  store ptr %1, ptr %8, align 8, !tbaa !11
  store i32 %2, ptr %9, align 4, !tbaa !39
  store ptr %3, ptr %10, align 8, !tbaa !11
  store i64 %4, ptr %11, align 8, !tbaa !87
  call void @llvm.lifetime.start.p0(i64 4, ptr %12) #12
  call void @llvm.lifetime.start.p0(i64 4, ptr %13) #12
  call void @llvm.lifetime.start.p0(i64 24, ptr %14) #12
  call void @llvm.memcpy.p0.p0.i64(ptr align 8 %14, ptr align 8 @__const.try_create_file.nbuf, i64 24, i1 false)
  %17 = load i32, ptr %9, align 4, !tbaa !39
  %18 = and i32 %17, 61440
  %19 = icmp eq i32 %18, 57344
  br i1 %19, label %20, label %38

20:                                               ; preds = %5
  call void @llvm.lifetime.start.p0(i64 144, ptr %15) #12
  %21 = load ptr, ptr %8, align 8, !tbaa !11
  %22 = call i32 @lstat64(ptr noundef %21, ptr noundef %15) #12
  %23 = icmp ne i32 %22, 0
  br i1 %23, label %30, label %24

24:                                               ; preds = %20
  %25 = getelementptr inbounds nuw %struct.stat, ptr %15, i32 0, i32 3
  %26 = load i32, ptr %25, align 8, !tbaa !244
  %27 = and i32 %26, 61440
  %28 = icmp eq i32 %27, 16384
  br i1 %28, label %29, label %30

29:                                               ; preds = %24
  store i32 0, ptr %6, align 4
  store i32 1, ptr %16, align 4
  br label %37

30:                                               ; preds = %24, %20
  %31 = load ptr, ptr %8, align 8, !tbaa !11
  %32 = call i32 @mkdir(ptr noundef %31, i32 noundef 511) #12
  %33 = icmp ne i32 %32, 0
  %34 = xor i1 %33, true
  %35 = xor i1 %34, true
  %36 = zext i1 %35 to i32
  store i32 %36, ptr %6, align 4
  store i32 1, ptr %16, align 4
  br label %37

37:                                               ; preds = %30, %29
  call void @llvm.lifetime.end.p0(i64 144, ptr %15) #12
  br label %109

38:                                               ; preds = %5
  %39 = load i32, ptr @has_symlinks, align 4, !tbaa !39
  %40 = icmp ne i32 %39, 0
  br i1 %40, label %41, label %53

41:                                               ; preds = %38
  %42 = load i32, ptr %9, align 4, !tbaa !39
  %43 = and i32 %42, 61440
  %44 = icmp eq i32 %43, 40960
  br i1 %44, label %45, label %53

45:                                               ; preds = %41
  %46 = load ptr, ptr %10, align 8, !tbaa !11
  %47 = load ptr, ptr %8, align 8, !tbaa !11
  %48 = call i32 @symlink(ptr noundef %46, ptr noundef %47) #12
  %49 = icmp ne i32 %48, 0
  %50 = xor i1 %49, true
  %51 = xor i1 %50, true
  %52 = zext i1 %51 to i32
  store i32 %52, ptr %6, align 4
  store i32 1, ptr %16, align 4
  br label %109

53:                                               ; preds = %41, %38
  %54 = load ptr, ptr %8, align 8, !tbaa !11
  %55 = load i32, ptr %9, align 4, !tbaa !39
  %56 = and i32 %55, 64
  %57 = icmp ne i32 %56, 0
  %58 = select i1 %57, i32 511, i32 438
  %59 = call i32 (ptr, i32, ...) @open64(ptr noundef %54, i32 noundef 193, i32 noundef %58)
  store i32 %59, ptr %12, align 4, !tbaa !39
  %60 = load i32, ptr %12, align 4, !tbaa !39
  %61 = icmp slt i32 %60, 0
  br i1 %61, label %62, label %63

62:                                               ; preds = %53
  store i32 1, ptr %6, align 4
  store i32 1, ptr %16, align 4
  br label %109

63:                                               ; preds = %53
  %64 = load ptr, ptr %7, align 8, !tbaa !4
  %65 = getelementptr inbounds nuw %struct.apply_state, ptr %64, i32 0, i32 19
  %66 = load ptr, ptr %65, align 8, !tbaa !27
  %67 = getelementptr inbounds nuw %struct.repository, ptr %66, i32 0, i32 15
  %68 = load ptr, ptr %67, align 8, !tbaa !125
  %69 = load ptr, ptr %8, align 8, !tbaa !11
  %70 = load ptr, ptr %10, align 8, !tbaa !11
  %71 = load i64, ptr %11, align 8, !tbaa !87
  %72 = call i32 @convert_to_working_tree(ptr noundef %68, ptr noundef %69, ptr noundef %70, i64 noundef %71, ptr noundef %14, ptr noundef null)
  %73 = icmp ne i32 %72, 0
  br i1 %73, label %74, label %79

74:                                               ; preds = %63
  %75 = getelementptr inbounds nuw %struct.strbuf, ptr %14, i32 0, i32 1
  %76 = load i64, ptr %75, align 8, !tbaa !81
  store i64 %76, ptr %11, align 8, !tbaa !87
  %77 = getelementptr inbounds nuw %struct.strbuf, ptr %14, i32 0, i32 2
  %78 = load ptr, ptr %77, align 8, !tbaa !82
  store ptr %78, ptr %10, align 8, !tbaa !11
  br label %79

79:                                               ; preds = %74, %63
  %80 = load i32, ptr %12, align 4, !tbaa !39
  %81 = load ptr, ptr %10, align 8, !tbaa !11
  %82 = load i64, ptr %11, align 8, !tbaa !87
  %83 = call i64 @write_in_full(i32 noundef %80, ptr noundef %81, i64 noundef %82)
  %84 = icmp slt i64 %83, 0
  %85 = zext i1 %84 to i32
  store i32 %85, ptr %13, align 4, !tbaa !39
  %86 = load i32, ptr %13, align 4, !tbaa !39
  %87 = icmp ne i32 %86, 0
  br i1 %87, label %88, label %93

88:                                               ; preds = %79
  %89 = call ptr @_(ptr noundef @.str.228)
  %90 = load ptr, ptr %8, align 8, !tbaa !11
  %91 = call i32 (ptr, ...) @error_errno(ptr noundef %89, ptr noundef %90)
  %92 = call i32 @const_error()
  br label %93

93:                                               ; preds = %88, %79
  call void @strbuf_release(ptr noundef %14)
  %94 = load i32, ptr %12, align 4, !tbaa !39
  %95 = call i32 @close(i32 noundef %94)
  %96 = icmp slt i32 %95, 0
  br i1 %96, label %97, label %105

97:                                               ; preds = %93
  %98 = load i32, ptr %13, align 4, !tbaa !39
  %99 = icmp ne i32 %98, 0
  br i1 %99, label %105, label %100

100:                                              ; preds = %97
  %101 = call ptr @_(ptr noundef @.str.229)
  %102 = load ptr, ptr %8, align 8, !tbaa !11
  %103 = call i32 (ptr, ...) @error_errno(ptr noundef %101, ptr noundef %102)
  %104 = call i32 @const_error()
  store i32 %104, ptr %6, align 4
  store i32 1, ptr %16, align 4
  br label %109

105:                                              ; preds = %97, %93
  %106 = load i32, ptr %13, align 4, !tbaa !39
  %107 = icmp ne i32 %106, 0
  %108 = select i1 %107, i32 -1, i32 0
  store i32 %108, ptr %6, align 4
  store i32 1, ptr %16, align 4
  br label %109

109:                                              ; preds = %105, %100, %62, %45, %37
  call void @llvm.lifetime.end.p0(i64 24, ptr %14) #12
  call void @llvm.lifetime.end.p0(i64 4, ptr %13) #12
  call void @llvm.lifetime.end.p0(i64 4, ptr %12) #12
  %110 = load i32, ptr %6, align 4
  ret i32 %110
}