; Function Attrs: nounwind uwtable
define internal fastcc range(i32 -1, 2) i32 @try_create_file(ptr noundef readonly captures(none) %0, ptr noundef %1, i32 noundef %2, ptr noundef %3, i64 noundef %4) unnamed_addr #0 {
  %6 = alloca %struct.conv_attrs, align 8
  %7 = alloca %struct.strbuf, align 8
  %8 = alloca %struct.stat, align 8
  call void @llvm.lifetime.start.p0(i64 24, ptr nonnull %7) #21
  call void @llvm.memcpy.p0.p0.i64(ptr noundef nonnull align 8 dereferenceable(24) %7, ptr noundef nonnull align 8 dereferenceable(24) @__const.show_stats.qname, i64 24, i1 false)
  %9 = and i32 %2, 61440
  %10 = icmp eq i32 %9, 57344
  br i1 %10, label %11, label %23

11:                                               ; preds = %5
  call void @llvm.lifetime.start.p0(i64 144, ptr nonnull %8) #21
  %12 = call i32 @lstat64(ptr noundef %1, ptr noundef nonnull %8) #21
  %.not29 = icmp eq i32 %12, 0
  br i1 %.not29, label %13, label %18

13:                                               ; preds = %11
  %14 = getelementptr inbounds nuw i8, ptr %8, i64 24
  %15 = load i32, ptr %14, align 8, !tbaa !169
  %16 = and i32 %15, 61440
  %17 = icmp eq i32 %16, 16384
  br i1 %17, label %22, label %18

18:                                               ; preds = %13, %11
  %19 = tail call i32 @mkdir(ptr noundef %1, i32 noundef 511) #21
  %20 = icmp ne i32 %19, 0
  %21 = zext i1 %20 to i32
  br label %22

22:                                               ; preds = %13, %18
  %.0 = phi i32 [ %21, %18 ], [ 0, %13 ]
  call void @llvm.lifetime.end.p0(i64 144, ptr nonnull %8) #21
  br label %62

23:                                               ; preds = %5
  %24 = load i32, ptr @has_symlinks, align 4, !tbaa !34
  %.not = icmp ne i32 %24, 0
  %25 = icmp eq i32 %9, 40960
  %or.cond30 = and i1 %25, %.not
  br i1 %or.cond30, label %26, label %30

26:                                               ; preds = %23
  %27 = tail call i32 @symlink(ptr noundef %3, ptr noundef %1) #21
  %28 = icmp ne i32 %27, 0
  %29 = zext i1 %28 to i32
  br label %62

30:                                               ; preds = %23
  %31 = and i32 %2, 64
  %.not27 = icmp eq i32 %31, 0
  %32 = select i1 %.not27, i32 438, i32 511
  %33 = tail call i32 (ptr, i32, ...) @open64(ptr noundef %1, i32 noundef 193, i32 noundef %32) #21
  %34 = icmp slt i32 %33, 0
  br i1 %34, label %62, label %35

35:                                               ; preds = %30
  %36 = getelementptr inbounds nuw i8, ptr %0, i64 88
  %37 = load ptr, ptr %36, align 8, !tbaa !23
  %38 = getelementptr inbounds nuw i8, ptr %37, i64 384
  %39 = load ptr, ptr %38, align 8, !tbaa !109
  call void @llvm.lifetime.start.p0(i64 32, ptr nonnull %6) #21
  call void @convert_attrs(ptr noundef %39, ptr noundef nonnull %6, ptr noundef %1) #21
  %40 = call i32 @convert_to_working_tree_ca(ptr noundef nonnull %6, ptr noundef %1, ptr noundef %3, i64 noundef %4, ptr noundef nonnull %7, ptr noundef null) #21
  call void @llvm.lifetime.end.p0(i64 32, ptr nonnull %6) #21
  %.not28 = icmp eq i32 %40, 0
  %41 = getelementptr inbounds nuw i8, ptr %7, i64 8
  %42 = load i64, ptr %41, align 8
  %43 = getelementptr inbounds nuw i8, ptr %7, i64 16
  %44 = load ptr, ptr %43, align 8
  %.024 = select i1 %.not28, i64 %4, i64 %42
  %.023 = select i1 %.not28, ptr %3, ptr %44
  %45 = call i64 @write_in_full(i32 noundef %33, ptr noundef %.023, i64 noundef %.024) #21
  %46 = icmp slt i64 %45, 0
  br i1 %46, label %47, label %52

47:                                               ; preds = %35
  %48 = load i32, ptr @git_gettext_enabled, align 4, !tbaa !34
  %.not4.i = icmp eq i32 %48, 0
  br i1 %.not4.i, label %_.exit, label %49

49:                                               ; preds = %47
  %50 = call ptr @dcgettext(ptr noundef null, ptr noundef nonnull @.str.228, i32 noundef 5) #21
  br label %_.exit

_.exit:                                           ; preds = %47, %49
  %.0.i = phi ptr [ %50, %49 ], [ @.str.228, %47 ]
  %51 = call i32 (ptr, ...) @error_errno(ptr noundef %.0.i, ptr noundef %1) #21
  br label %52

52:                                               ; preds = %_.exit, %35
  call void @strbuf_release(ptr noundef nonnull %7) #21
  %53 = call i32 @close(i32 noundef %33) #21
  %54 = icmp sgt i32 %53, -1
  %or.cond = or i1 %46, %54
  br i1 %or.cond, label %60, label %55

55:                                               ; preds = %52
  %56 = load i32, ptr @git_gettext_enabled, align 4, !tbaa !34
  %.not4.i31 = icmp eq i32 %56, 0
  br i1 %.not4.i31, label %_.exit33, label %57

57:                                               ; preds = %55
  %58 = call ptr @dcgettext(ptr noundef null, ptr noundef nonnull @.str.229, i32 noundef 5) #21
  br label %_.exit33

_.exit33:                                         ; preds = %55, %57
  %.0.i32 = phi ptr [ %58, %57 ], [ @.str.229, %55 ]
  %59 = call i32 (ptr, ...) @error_errno(ptr noundef %.0.i32, ptr noundef %1) #21
  br label %62

60:                                               ; preds = %52
  %.lobit = ashr i64 %45, 63
  %61 = trunc nsw i64 %.lobit to i32
  br label %62

62:                                               ; preds = %30, %60, %_.exit33, %26, %22
  %.1 = phi i32 [ %.0, %22 ], [ %29, %26 ], [ %61, %60 ], [ -1, %_.exit33 ], [ 1, %30 ]
  call void @llvm.lifetime.end.p0(i64 24, ptr nonnull %7) #21
  ret i32 %.1
}